target datalayout = "e-m:e-p270:32:32-p271:32:32-p272:64:64-i64:64-i128:128-f80:128-n8:16:32:64-S128"
target triple = "x86_64-pc-linux-gnu"

%"struct.rocksdb::TablePropertiesCollectorFactory::Context" = type { i32, i32, i32, i64 }
%"class.rocksdb::CompactForTieringCollectorFactory" = type { %"class.rocksdb::TablePropertiesCollectorFactory", %"struct.std::atomic" }
%"class.rocksdb::TablePropertiesCollectorFactory" = type { %"class.rocksdb::Customizable" }
%"class.rocksdb::Customizable" = type { %"class.rocksdb::Configurable" }
%"class.rocksdb::Configurable" = type { ptr, %"class.std::vector" }
%"class.std::vector" = type { %"struct.std::_Vector_base" }
%"struct.std::_Vector_base" = type { %"struct.std::_Vector_base<rocksdb::Configurable::RegisteredOptions, std::allocator<rocksdb::Configurable::RegisteredOptions>>::_Vector_impl" }
%"struct.std::_Vector_base<rocksdb::Configurable::RegisteredOptions, std::allocator<rocksdb::Configurable::RegisteredOptions>>::_Vector_impl" = type { %"struct.std::_Vector_base<rocksdb::Configurable::RegisteredOptions, std::allocator<rocksdb::Configurable::RegisteredOptions>>::_Vector_impl_data" }
%"struct.std::_Vector_base<rocksdb::Configurable::RegisteredOptions, std::allocator<rocksdb::Configurable::RegisteredOptions>>::_Vector_impl_data" = type { ptr, ptr, ptr }
%"struct.std::atomic" = type { double }

@_ZN7rocksdb26CompactForTieringCollectorC1Emdb = unnamed_addr alias void (ptr, i64, double, i1), ptr @_ZN7rocksdb26CompactForTieringCollectorC2Emdb

; Function Attrs: mustprogress nounwind uwtable
define linkonce_odr noundef double @_ZNKSt6atomicIdE4loadESt12memory_order(ptr noundef nonnull align 8 dereferenceable(8) %0, i32 noundef %1) #3 comdat align 2 {
  %3 = alloca ptr, align 8
  %4 = alloca i32, align 4
  %5 = alloca [8 x i8], align 8
  %6 = alloca ptr, align 8
  store ptr %0, ptr %3, align 8, !tbaa !117
  store i32 %1, ptr %4, align 4, !tbaa !125
  %7 = load ptr, ptr %3, align 8
  call void @llvm.lifetime.start.p0(i64 8, ptr %5) #5
  call void @llvm.lifetime.start.p0(i64 8, ptr %6) #5
  %8 = getelementptr inbounds [8 x i8], ptr %5, i64 0, i64 0
  store ptr %8, ptr %6, align 8, !tbaa !127
  %9 = getelementptr inbounds nuw %"struct.std::atomic", ptr %7, i32 0, i32 0
  %10 = load i32, ptr %4, align 4, !tbaa !125
  %11 = load ptr, ptr %6, align 8, !tbaa !127
  switch i32 %10, label %12 [
    i32 1, label %14
    i32 2, label %14
    i32 5, label %16
  ]

12:                                               ; preds = %2
  %13 = load atomic i64, ptr %9 monotonic, align 8
  store i64 %13, ptr %11, align 8
  br label %18

14:                                               ; preds = %2, %2
  %15 = load atomic i64, ptr %9 acquire, align 8
  store i64 %15, ptr %11, align 8
  br label %18

16:                                               ; preds = %2
  %17 = load atomic i64, ptr %9 seq_cst, align 8
  store i64 %17, ptr %11, align 8
  br label %18

18:                                               ; preds = %16, %14, %12
  %19 = load ptr, ptr %6, align 8, !tbaa !127
  %20 = load double, ptr %19, align 8, !tbaa !21
  call void @llvm.lifetime.end.p0(i64 8, ptr %6) #5
  call void @llvm.lifetime.end.p0(i64 8, ptr %5) #5
  ret double %20
}

; Function Attrs: mustprogress nounwind uwtable
define linkonce_odr noundef double @_ZNK7rocksdb33CompactForTieringCollectorFactory25GetCompactionTriggerRatioEv(ptr noundef nonnull align 8 dereferenceable(40) %0) #3 comdat align 2 {
  %2 = alloca ptr, align 8
  store ptr %0, ptr %2, align 8, !tbaa !57
  %3 = load ptr, ptr %2, align 8
  %4 = getelementptr inbounds nuw %"class.rocksdb::CompactForTieringCollectorFactory", ptr %3, i32 0, i32 1
  %5 = call noundef double @_ZNKSt6atomicIdE4loadESt12memory_order(ptr noundef nonnull align 8 dereferenceable(8) %4, i32 noundef 5) #5
  ret double %5
}

; Function Attrs: mustprogress uwtable
define noundef ptr @_ZN7rocksdb33CompactForTieringCollectorFactory30CreateTablePropertiesCollectorENS_31TablePropertiesCollectorFactory7ContextE(ptr noundef nonnull align 8 dereferenceable(40) %0, ptr noundef byval(%"struct.rocksdb::TablePropertiesCollectorFactory::Context") align 8 %1) unnamed_addr #4 align 2 personality ptr @__gxx_personality_v0 {
  %3 = alloca ptr, align 8
  %4 = alloca ptr, align 8
  %5 = alloca double, align 8
  %6 = alloca i32, align 4
  %7 = alloca ptr, align 8
  %8 = alloca i32, align 4
  store ptr %0, ptr %4, align 8, !tbaa !57
  %9 = load ptr, ptr %4, align 8
  call void @llvm.lifetime.start.p0(i64 8, ptr %5) #5
  %10 = call noundef double @_ZNK7rocksdb33CompactForTieringCollectorFactory25GetCompactionTriggerRatioEv(ptr noundef nonnull align 8 dereferenceable(40) %9)
  store double %10, ptr %5, align 8, !tbaa !21
  %11 = load double, ptr %5, align 8, !tbaa !21
  %12 = fcmp ole double %11, 0.000000e+00
  br i1 %12, label %24, label %13

13:                                               ; preds = %2
  %14 = getelementptr inbounds nuw %"struct.rocksdb::TablePropertiesCollectorFactory::Context", ptr %1, i32 0, i32 1
  %15 = load i32, ptr %14, align 4, !tbaa !59
  %16 = getelementptr inbounds nuw %"struct.rocksdb::TablePropertiesCollectorFactory::Context", ptr %1, i32 0, i32 2
  %17 = load i32, ptr %16, align 8, !tbaa !62
  %18 = sub nsw i32 %17, 1
  %19 = icmp eq i32 %15, %18
  br i1 %19, label %24, label %20

20:                                               ; preds = %13
  %21 = getelementptr inbounds nuw %"struct.rocksdb::TablePropertiesCollectorFactory::Context", ptr %1, i32 0, i32 3
  %22 = load i64, ptr %21, align 8, !tbaa !63
  %23 = icmp eq i64 %22, 72057594037927935
  br i1 %23, label %24, label %25

24:                                               ; preds = %20, %13, %2
  store ptr null, ptr %3, align 8
  store i32 1, ptr %6, align 4
  br label %35

25:                                               ; preds = %20
  %26 = call noalias noundef nonnull ptr @_Znwm(i64 noundef 48) #22
  %27 = getelementptr inbounds nuw %"struct.rocksdb::TablePropertiesCollectorFactory::Context", ptr %1, i32 0, i32 3
  %28 = load i64, ptr %27, align 8, !tbaa !63
  %29 = load double, ptr %5, align 8, !tbaa !21
  invoke void @_ZN7rocksdb26CompactForTieringCollectorC1Emdb(ptr noundef nonnull align 8 dereferenceable(43) %26, i64 noundef %28, double noundef %29, i1 noundef zeroext false)
          to label %30 unwind label %31

30:                                               ; preds = %25
  store ptr %26, ptr %3, align 8
  store i32 1, ptr %6, align 4
  br label %35

31:                                               ; preds = %25
  %32 = landingpad { ptr, i32 }
          cleanup
  %33 = extractvalue { ptr, i32 } %32, 0
  store ptr %33, ptr %7, align 8
  %34 = extractvalue { ptr, i32 } %32, 1
  store i32 %34, ptr %8, align 4
  call void @_ZdlPvm(ptr noundef %26, i64 noundef 48) #23
  call void @llvm.lifetime.end.p0(i64 8, ptr %5) #5
  br label %37

35:                                               ; preds = %30, %24
  call void @llvm.lifetime.end.p0(i64 8, ptr %5) #5
  %36 = load ptr, ptr %3, align 8
  ret ptr %36

37:                                               ; preds = %31
  %38 = load ptr, ptr %7, align 8
  %39 = load i32, ptr %8, align 4
  %40 = insertvalue { ptr, i32 } poison, ptr %38, 0
  %41 = insertvalue { ptr, i32 } %40, i32 %39, 1
  resume { ptr, i32 } %41
}