; Function Attrs: mustprogress uwtable
define noundef ptr @_ZN7rocksdb33CompactForTieringCollectorFactory30CreateTablePropertiesCollectorENS_31TablePropertiesCollectorFactory7ContextE(ptr noundef nonnull readonly align 8 captures(none) dereferenceable(40) %0, ptr noundef readonly byval(%"struct.rocksdb::TablePropertiesCollectorFactory::Context") align 8 captures(none) %1) unnamed_addr #4 align 2 personality ptr @__gxx_personality_v0 {
  %3 = getelementptr inbounds nuw i8, ptr %0, i64 32
  %4 = load atomic i64, ptr %3 seq_cst, align 8
  %5 = bitcast i64 %4 to double
  %6 = fcmp ugt double %5, 0.000000e+00
  br i1 %6, label %7, label %21

7:                                                ; preds = %2
  %8 = getelementptr inbounds nuw i8, ptr %1, i64 4
  %9 = load i32, ptr %8, align 4, !tbaa !62
  %10 = getelementptr inbounds nuw i8, ptr %1, i64 8
  %11 = load i32, ptr %10, align 8, !tbaa !65
  %12 = add nsw i32 %11, -1
  %13 = icmp eq i32 %9, %12
  %14 = getelementptr inbounds nuw i8, ptr %1, i64 16
  %15 = load i64, ptr %14, align 8
  %16 = icmp eq i64 %15, 72057594037927935
  %or.cond = select i1 %13, i1 true, i1 %16
  br i1 %or.cond, label %21, label %17

17:                                               ; preds = %7
  %18 = tail call noalias noundef nonnull dereferenceable(48) ptr @_Znwm(i64 noundef 48) #29
  invoke void @_ZN7rocksdb26CompactForTieringCollectorC1Emdb(ptr noundef nonnull align 8 dereferenceable(43) %18, i64 noundef %15, double noundef %5, i1 noundef zeroext false)
          to label %21 unwind label %19

19:                                               ; preds = %17
  %20 = landingpad { ptr, i32 }
          cleanup
  tail call void @_ZdlPvm(ptr noundef nonnull %18, i64 noundef 48) #28
  resume { ptr, i32 } %20

21:                                               ; preds = %17, %2, %7
  %.0 = phi ptr [ null, %7 ], [ null, %2 ], [ %18, %17 ]
  ret ptr %.0
}